target datalayout = "e-m:e-p270:32:32-p271:32:32-p272:64:64-i64:64-i128:128-f80:128-n8:16:32:64-S128"
target triple = "x86_64-pc-linux-gnu"

%"struct.llvm::InlineAsm::ConstraintInfo" = type <{ i32, i8, [3 x i8], i32, i8, i8, [2 x i8], %"class.std::vector.364", i8, [7 x i8], %"class.std::vector.369", i32, [4 x i8] }>
%"class.std::vector.364" = type { %"struct.std::_Vector_base.365" }
%"struct.std::_Vector_base.365" = type { %"struct.std::_Vector_base<std::__cxx11::basic_string<char>, std::allocator<std::__cxx11::basic_string<char>>>::_Vector_impl" }
%"struct.std::_Vector_base<std::__cxx11::basic_string<char>, std::allocator<std::__cxx11::basic_string<char>>>::_Vector_impl" = type { %"struct.std::_Vector_base<std::__cxx11::basic_string<char>, std::allocator<std::__cxx11::basic_string<char>>>::_Vector_impl_data" }
%"struct.std::_Vector_base<std::__cxx11::basic_string<char>, std::allocator<std::__cxx11::basic_string<char>>>::_Vector_impl_data" = type { ptr, ptr, ptr }
%"class.std::vector.369" = type { %"struct.std::_Vector_base.370" }
%"struct.std::_Vector_base.370" = type { %"struct.std::_Vector_base<llvm::InlineAsm::SubConstraintInfo, std::allocator<llvm::InlineAsm::SubConstraintInfo>>::_Vector_impl" }
%"struct.std::_Vector_base<llvm::InlineAsm::SubConstraintInfo, std::allocator<llvm::InlineAsm::SubConstraintInfo>>::_Vector_impl" = type { %"struct.std::_Vector_base<llvm::InlineAsm::SubConstraintInfo, std::allocator<llvm::InlineAsm::SubConstraintInfo>>::_Vector_impl_data" }
%"struct.std::_Vector_base<llvm::InlineAsm::SubConstraintInfo, std::allocator<llvm::InlineAsm::SubConstraintInfo>>::_Vector_impl_data" = type { ptr, ptr, ptr }
%"struct.llvm::InlineAsm::SubConstraintInfo" = type { i32, %"class.std::vector.364" }

; Function Attrs: mustprogress nounwind uwtable
define linkonce_odr hidden noundef nonnull align 8 dereferenceable(32) ptr @_ZNSt6vectorIN4llvm9InlineAsm17SubConstraintInfoESaIS2_EEixEm(ptr noundef nonnull align 8 dereferenceable(24) %0, i64 noundef %1) #0 comdat align 2 {
  %3 = alloca ptr, align 8
  %4 = alloca i64, align 8
  store ptr %0, ptr %3, align 8
  store i64 %1, ptr %4, align 8
  %5 = load ptr, ptr %3, align 8
  %6 = getelementptr inbounds nuw %"struct.std::_Vector_base.370", ptr %5, i32 0, i32 0
  %7 = getelementptr inbounds nuw %"struct.std::_Vector_base<llvm::InlineAsm::SubConstraintInfo, std::allocator<llvm::InlineAsm::SubConstraintInfo>>::_Vector_impl_data", ptr %6, i32 0, i32 0
  %8 = load ptr, ptr %7, align 8
  %9 = load i64, ptr %4, align 8
  %10 = getelementptr inbounds %"struct.llvm::InlineAsm::SubConstraintInfo", ptr %8, i64 %9
  ret ptr %10
}

; Function Attrs: mustprogress nounwind uwtable
define linkonce_odr hidden noundef i64 @_ZNKSt6vectorIN4llvm9InlineAsm17SubConstraintInfoESaIS2_EE4sizeEv(ptr noundef nonnull align 8 dereferenceable(24) %0) #0 comdat align 2 {
  %2 = alloca ptr, align 8
  store ptr %0, ptr %2, align 8
  %3 = load ptr, ptr %2, align 8
  %4 = getelementptr inbounds nuw %"struct.std::_Vector_base.370", ptr %3, i32 0, i32 0
  %5 = getelementptr inbounds nuw %"struct.std::_Vector_base<llvm::InlineAsm::SubConstraintInfo, std::allocator<llvm::InlineAsm::SubConstraintInfo>>::_Vector_impl_data", ptr %4, i32 0, i32 1
  %6 = load ptr, ptr %5, align 8
  %7 = getelementptr inbounds nuw %"struct.std::_Vector_base.370", ptr %3, i32 0, i32 0
  %8 = getelementptr inbounds nuw %"struct.std::_Vector_base<llvm::InlineAsm::SubConstraintInfo, std::allocator<llvm::InlineAsm::SubConstraintInfo>>::_Vector_impl_data", ptr %7, i32 0, i32 0
  %9 = load ptr, ptr %8, align 8
  %10 = ptrtoint ptr %6 to i64
  %11 = ptrtoint ptr %9 to i64
  %12 = sub i64 %10, %11
  %13 = sdiv exact i64 %12, 32
  ret i64 %13
}

; Function Attrs: mustprogress nounwind uwtable
define dso_local void @_ZN4llvm9InlineAsm14ConstraintInfo17selectAlternativeEj(ptr noundef nonnull align 8 dereferenceable(76) %0, i32 noundef %1) #0 align 2 {
  %3 = alloca ptr, align 8
  %4 = alloca i32, align 4
  %5 = alloca ptr, align 8
  store ptr %0, ptr %3, align 8
  store i32 %1, ptr %4, align 4
  %6 = load ptr, ptr %3, align 8
  %7 = load i32, ptr %4, align 4
  %8 = zext i32 %7 to i64
  %9 = getelementptr inbounds nuw %"struct.llvm::InlineAsm::ConstraintInfo", ptr %6, i32 0, i32 10
  %10 = call noundef i64 @_ZNKSt6vectorIN4llvm9InlineAsm17SubConstraintInfoESaIS2_EE4sizeEv(ptr noundef nonnull align 8 dereferenceable(24) %9) #10
  %11 = icmp ult i64 %8, %10
  br i1 %11, label %12, label %28

12:                                               ; preds = %2
  %13 = load i32, ptr %4, align 4
  %14 = getelementptr inbounds nuw %"struct.llvm::InlineAsm::ConstraintInfo", ptr %6, i32 0, i32 11
  store i32 %13, ptr %14, align 8
  %15 = getelementptr inbounds nuw %"struct.llvm::InlineAsm::ConstraintInfo", ptr %6, i32 0, i32 10
  %16 = getelementptr inbounds nuw %"struct.llvm::InlineAsm::ConstraintInfo", ptr %6, i32 0, i32 11
  %17 = load i32, ptr %16, align 8
  %18 = zext i32 %17 to i64
  %19 = call noundef nonnull align 8 dereferenceable(32) ptr @_ZNSt6vectorIN4llvm9InlineAsm17SubConstraintInfoESaIS2_EEixEm(ptr noundef nonnull align 8 dereferenceable(24) %15, i64 noundef %18) #10
  store ptr %19, ptr %5, align 8
  %20 = load ptr, ptr %5, align 8
  %21 = getelementptr inbounds nuw %"struct.llvm::InlineAsm::SubConstraintInfo", ptr %20, i32 0, i32 0
  %22 = load i32, ptr %21, align 8
  %23 = getelementptr inbounds nuw %"struct.llvm::InlineAsm::ConstraintInfo", ptr %6, i32 0, i32 3
  store i32 %22, ptr %23, align 8
  %24 = load ptr, ptr %5, align 8
  %25 = getelementptr inbounds nuw %"struct.llvm::InlineAsm::SubConstraintInfo", ptr %24, i32 0, i32 1
  %26 = getelementptr inbounds nuw %"struct.llvm::InlineAsm::ConstraintInfo", ptr %6, i32 0, i32 7
  %27 = call noundef nonnull align 8 dereferenceable(24) ptr @_ZNSt6vectorINSt7__cxx1112basic_stringIcSt11char_traitsIcESaIcEEESaIS5_EEaSERKS7_(ptr noundef nonnull align 8 dereferenceable(24) %26, ptr noundef nonnull align 8 dereferenceable(24) %25)
  br label %28

28:                                               ; preds = %12, %2
  ret void
}