; Function Attrs: mustprogress nounwind uwtable
define dso_local void @_ZN4llvm9InlineAsm14ConstraintInfo17selectAlternativeEj(ptr noundef nonnull align 8 dereferenceable(76) %0, i32 noundef %1) local_unnamed_addr #0 align 2 {
  %3 = zext i32 %1 to i64
  %4 = getelementptr inbounds nuw i8, ptr %0, i64 48
  %5 = getelementptr inbounds nuw i8, ptr %0, i64 56
  %6 = load ptr, ptr %5, align 8
  %7 = load ptr, ptr %4, align 8
  %8 = ptrtoint ptr %6 to i64
  %9 = ptrtoint ptr %7 to i64
  %10 = sub i64 %8, %9
  %11 = ashr exact i64 %10, 5
  %12 = icmp ugt i64 %11, %3
  br i1 %12, label %13, label %21

13:                                               ; preds = %2
  %14 = getelementptr inbounds nuw i8, ptr %0, i64 72
  store i32 %1, ptr %14, align 8
  %15 = getelementptr inbounds nuw %"struct.llvm::InlineAsm::SubConstraintInfo", ptr %7, i64 %3
  %16 = load i32, ptr %15, align 8
  %17 = getelementptr inbounds nuw i8, ptr %0, i64 8
  store i32 %16, ptr %17, align 8
  %18 = getelementptr inbounds nuw i8, ptr %15, i64 8
  %19 = getelementptr inbounds nuw i8, ptr %0, i64 16
  %20 = tail call noundef nonnull align 8 dereferenceable(24) ptr @_ZNSt6vectorINSt7__cxx1112basic_stringIcSt11char_traitsIcESaIcEEESaIS5_EEaSERKS7_(ptr noundef nonnull align 8 dereferenceable(24) %19, ptr noundef nonnull align 8 dereferenceable(24) %18)
  br label %21

21:                                               ; preds = %13, %2
  ret void
}